target datalayout = "e-m:e-p270:32:32-p271:32:32-p272:64:64-i64:64-i128:128-f80:128-n8:16:32:64-S128"
target triple = "x86_64-pc-linux-gnu"

@hf_fmp_hostID = internal global i32 0, align 4
@hf_fmp_btime = internal global i32 0, align 4
@hf_fmp_time_sec = internal global i32 0, align 4
@hf_fmp_time_nsec = internal global i32 0, align 4
@hf_fmp_sessionHandle = internal global i32 0, align 4
@hf_fmp_os_major = internal global i32 0, align 4
@hf_fmp_os_minor = internal global i32 0, align 4
@hf_fmp_os_patch = internal global i32 0, align 4
@hf_fmp_os_build = internal global i32 0, align 4
@hf_fmp_server_version_string = internal global i32 0, align 4
@hf_fmp_cap = internal global i32 0, align 4
@hf_fmp_heartbeat_interval = internal global i32 0, align 4
@ett_capabilities = internal global i32 0, align 4
@dissect_fmp_capabilities.capabilities = internal constant [4 x ptr] [ptr @hf_fmp_cap_revoke_handle_list, ptr @hf_fmp_cap_unc_names, ptr @hf_fmp_cap_cifsv2, ptr null], align 16

; Function Attrs: null_pointer_is_valid sspstrong uwtable
define internal i32 @dissect_fmp_capabilities(ptr noundef %0, i32 noundef %1, ptr noundef %2) #0 {
  %4 = alloca ptr, align 8
  %5 = alloca i32, align 4
  %6 = alloca ptr, align 8
  store ptr %0, ptr %4, align 8
  store i32 %1, ptr %5, align 4
  store ptr %2, ptr %6, align 8
  %7 = load ptr, ptr %6, align 8
  %8 = load ptr, ptr %4, align 8
  %9 = load i32, ptr %5, align 4
  %10 = load i32, ptr @hf_fmp_cap, align 4
  %11 = load i32, ptr @ett_capabilities, align 4
  %12 = call ptr @proto_tree_add_bitmask_with_flags(ptr noundef %7, ptr noundef %8, i32 noundef %9, i32 noundef %10, i32 noundef %11, ptr noundef @dissect_fmp_capabilities.capabilities, i32 noundef 0, i32 noundef 1)
  %13 = load i32, ptr %5, align 4
  %14 = add i32 %13, 4
  ret i32 %14
}

; Function Attrs: null_pointer_is_valid sspstrong uwtable
define internal i32 @dissect_fmp_heartBeatIntv(ptr noundef %0, i32 noundef %1, ptr noundef %2, ptr noundef %3) #0 {
  %5 = alloca ptr, align 8
  %6 = alloca i32, align 4
  %7 = alloca ptr, align 8
  %8 = alloca ptr, align 8
  store ptr %0, ptr %5, align 8
  store i32 %1, ptr %6, align 4
  store ptr %2, ptr %7, align 8
  store ptr %3, ptr %8, align 8
  %9 = load ptr, ptr %8, align 8
  %10 = load i32, ptr @hf_fmp_heartbeat_interval, align 4
  %11 = load ptr, ptr %5, align 8
  %12 = load i32, ptr %6, align 4
  %13 = call ptr @proto_tree_add_item(ptr noundef %9, i32 noundef %10, ptr noundef %11, i32 noundef %12, i32 noundef 8, i32 noundef 0)
  %14 = load i32, ptr %6, align 4
  %15 = add i32 %14, 8
  store i32 %15, ptr %6, align 4
  %16 = load i32, ptr %6, align 4
  ret i32 %16
}

; Function Attrs: null_pointer_is_valid sspstrong uwtable
define internal i32 @dissect_FMP_SessionCreateEx_reply(ptr noundef %0, ptr noundef %1, ptr noundef %2, ptr noundef %3) #0 {
  %5 = alloca ptr, align 8
  %6 = alloca ptr, align 8
  %7 = alloca ptr, align 8
  %8 = alloca ptr, align 8
  %9 = alloca i32, align 4
  %10 = alloca i32, align 4
  store ptr %0, ptr %5, align 8
  store ptr %1, ptr %6, align 8
  store ptr %2, ptr %7, align 8
  store ptr %3, ptr %8, align 8
  call void @llvm.lifetime.start.p0(i64 4, ptr %9) #4
  call void @llvm.lifetime.start.p0(i64 4, ptr %10) #4
  store i32 0, ptr %10, align 4
  %11 = load ptr, ptr %5, align 8
  %12 = load i32, ptr %10, align 4
  %13 = load ptr, ptr %7, align 8
  %14 = call i32 @dissect_fmp_status(ptr noundef %11, i32 noundef %12, ptr noundef %13, ptr noundef %9)
  store i32 %14, ptr %10, align 4
  %15 = load i32, ptr %9, align 4
  %16 = icmp eq i32 %15, 0
  br i1 %16, label %17, label %70

17:                                               ; preds = %4
  %18 = load ptr, ptr %5, align 8
  %19 = load ptr, ptr %7, align 8
  %20 = load i32, ptr @hf_fmp_sessionHandle, align 4
  %21 = load i32, ptr %10, align 4
  %22 = call i32 @dissect_rpc_data(ptr noundef %18, ptr noundef %19, i32 noundef %20, i32 noundef %21)
  store i32 %22, ptr %10, align 4
  %23 = load ptr, ptr %5, align 8
  %24 = load ptr, ptr %7, align 8
  %25 = load i32, ptr @hf_fmp_hostID, align 4
  %26 = load i32, ptr %10, align 4
  %27 = call i32 @dissect_rpc_string(ptr noundef %23, ptr noundef %24, i32 noundef %25, i32 noundef %26, ptr noundef null)
  store i32 %27, ptr %10, align 4
  %28 = load ptr, ptr %5, align 8
  %29 = load i32, ptr %10, align 4
  %30 = load ptr, ptr %6, align 8
  %31 = load ptr, ptr %7, align 8
  %32 = load i32, ptr @hf_fmp_btime, align 4
  %33 = load i32, ptr @hf_fmp_time_sec, align 4
  %34 = load i32, ptr @hf_fmp_time_nsec, align 4
  %35 = call i32 @dissect_fmp_timeval(ptr noundef %28, i32 noundef %29, ptr noundef %30, ptr noundef %31, i32 noundef %32, i32 noundef %33, i32 noundef %34)
  store i32 %35, ptr %10, align 4
  %36 = load ptr, ptr %5, align 8
  %37 = load i32, ptr %10, align 4
  %38 = load ptr, ptr %6, align 8
  %39 = load ptr, ptr %7, align 8
  %40 = call i32 @dissect_fmp_heartBeatIntv(ptr noundef %36, i32 noundef %37, ptr noundef %38, ptr noundef %39)
  store i32 %40, ptr %10, align 4
  %41 = load ptr, ptr %5, align 8
  %42 = load ptr, ptr %7, align 8
  %43 = load i32, ptr @hf_fmp_os_major, align 4
  %44 = load i32, ptr %10, align 4
  %45 = call i32 @dissect_rpc_uint32(ptr noundef %41, ptr noundef %42, i32 noundef %43, i32 noundef %44)
  store i32 %45, ptr %10, align 4
  %46 = load ptr, ptr %5, align 8
  %47 = load ptr, ptr %7, align 8
  %48 = load i32, ptr @hf_fmp_os_minor, align 4
  %49 = load i32, ptr %10, align 4
  %50 = call i32 @dissect_rpc_uint32(ptr noundef %46, ptr noundef %47, i32 noundef %48, i32 noundef %49)
  store i32 %50, ptr %10, align 4
  %51 = load ptr, ptr %5, align 8
  %52 = load ptr, ptr %7, align 8
  %53 = load i32, ptr @hf_fmp_server_version_string, align 4
  %54 = load i32, ptr %10, align 4
  %55 = call i32 @dissect_rpc_string(ptr noundef %51, ptr noundef %52, i32 noundef %53, i32 noundef %54, ptr noundef null)
  store i32 %55, ptr %10, align 4
  %56 = load ptr, ptr %5, align 8
  %57 = load ptr, ptr %7, align 8
  %58 = load i32, ptr @hf_fmp_os_patch, align 4
  %59 = load i32, ptr %10, align 4
  %60 = call i32 @dissect_rpc_uint32(ptr noundef %56, ptr noundef %57, i32 noundef %58, i32 noundef %59)
  store i32 %60, ptr %10, align 4
  %61 = load ptr, ptr %5, align 8
  %62 = load ptr, ptr %7, align 8
  %63 = load i32, ptr @hf_fmp_os_build, align 4
  %64 = load i32, ptr %10, align 4
  %65 = call i32 @dissect_rpc_uint32(ptr noundef %61, ptr noundef %62, i32 noundef %63, i32 noundef %64)
  store i32 %65, ptr %10, align 4
  %66 = load ptr, ptr %5, align 8
  %67 = load i32, ptr %10, align 4
  %68 = load ptr, ptr %7, align 8
  %69 = call i32 @dissect_fmp_capabilities(ptr noundef %66, i32 noundef %67, ptr noundef %68)
  store i32 %69, ptr %10, align 4
  br label %70

70:                                               ; preds = %17, %4
  %71 = load i32, ptr %10, align 4
  call void @llvm.lifetime.end.p0(i64 4, ptr %10) #4
  call void @llvm.lifetime.end.p0(i64 4, ptr %9) #4
  ret i32 %71
}