; Function Attrs: null_pointer_is_valid sspstrong uwtable
define internal i32 @dissect_FMP_SessionCreateEx_reply(ptr noundef %0, ptr readnone captures(none) %1, ptr noundef %2, ptr readnone captures(none) %3) #0 {
  %5 = alloca i32, align 4
  call void @llvm.lifetime.start.p0(i64 4, ptr nonnull %5) #3
  %6 = call fastcc i32 @dissect_fmp_status(ptr noundef %0, i32 noundef 0, ptr noundef %2, ptr noundef nonnull %5)
  %7 = load i32, ptr %5, align 4
  %8 = icmp eq i32 %7, 0
  br i1 %8, label %9, label %35

9:                                                ; preds = %4
  %10 = load i32, ptr @hf_fmp_sessionHandle, align 4
  %11 = tail call i32 @dissect_rpc_data(ptr noundef %0, ptr noundef %2, i32 noundef %10, i32 noundef %6)
  %12 = load i32, ptr @hf_fmp_hostID, align 4
  %13 = tail call i32 @dissect_rpc_string(ptr noundef %0, ptr noundef %2, i32 noundef %12, i32 noundef %11, ptr noundef null)
  %14 = load i32, ptr @hf_fmp_btime, align 4
  %15 = load i32, ptr @hf_fmp_time_sec, align 4
  %16 = load i32, ptr @hf_fmp_time_nsec, align 4
  %17 = tail call fastcc i32 @dissect_fmp_timeval(ptr noundef %0, i32 noundef %13, ptr noundef %2, i32 noundef %14, i32 noundef %15, i32 noundef %16)
  %18 = load i32, ptr @hf_fmp_heartbeat_interval, align 4
  %19 = tail call ptr @proto_tree_add_item(ptr noundef %2, i32 noundef %18, ptr noundef %0, i32 noundef %17, i32 noundef 8, i32 noundef 0)
  %20 = add i32 %17, 8
  %21 = load i32, ptr @hf_fmp_os_major, align 4
  %22 = tail call i32 @dissect_rpc_uint32(ptr noundef %0, ptr noundef %2, i32 noundef %21, i32 noundef %20)
  %23 = load i32, ptr @hf_fmp_os_minor, align 4
  %24 = tail call i32 @dissect_rpc_uint32(ptr noundef %0, ptr noundef %2, i32 noundef %23, i32 noundef %22)
  %25 = load i32, ptr @hf_fmp_server_version_string, align 4
  %26 = tail call i32 @dissect_rpc_string(ptr noundef %0, ptr noundef %2, i32 noundef %25, i32 noundef %24, ptr noundef null)
  %27 = load i32, ptr @hf_fmp_os_patch, align 4
  %28 = tail call i32 @dissect_rpc_uint32(ptr noundef %0, ptr noundef %2, i32 noundef %27, i32 noundef %26)
  %29 = load i32, ptr @hf_fmp_os_build, align 4
  %30 = tail call i32 @dissect_rpc_uint32(ptr noundef %0, ptr noundef %2, i32 noundef %29, i32 noundef %28)
  %31 = load i32, ptr @hf_fmp_cap, align 4
  %32 = load i32, ptr @ett_capabilities, align 4
  %33 = tail call ptr @proto_tree_add_bitmask_with_flags(ptr noundef %2, ptr noundef %0, i32 noundef %30, i32 noundef %31, i32 noundef %32, ptr noundef nonnull @dissect_fmp_capabilities.capabilities, i32 noundef 0, i32 noundef 1)
  %34 = add i32 %30, 4
  br label %35

35:                                               ; preds = %9, %4
  %.0 = phi i32 [ %34, %9 ], [ %6, %4 ]
  call void @llvm.lifetime.end.p0(i64 4, ptr nonnull %5) #3
  ret i32 %.0
}